; ModuleID = '47/5316.c'
source_filename = "47/5316.c"
target datalayout = "e-m:e-p270:32:32-p271:32:32-p272:64:64-i64:64-f80:128-n8:16:32:64-S128"
target triple = "x86_64-pc-linux-gnu"

@.str = private unnamed_addr constant [3 x i8] c"%d\00", align 1
@.str.1 = private unnamed_addr constant [4 x i8] c"%d \00", align 1

; Function Attrs: noinline nounwind uwtable
define dso_local i32 @main(i32 %0, i8** %1) #0 {
  %3 = alloca i32, align 4
  %4 = alloca i32, align 4
  %5 = alloca i8**, align 8
  %6 = alloca i32, align 4
  %7 = alloca [100 x i32], align 16
  %8 = alloca i32, align 4
  %9 = alloca i32, align 4
  %10 = alloca i32, align 4
  store i32 0, i32* %3, align 4
  store i32 %0, i32* %4, align 4
  store i8** %1, i8*** %5, align 8
  store i32 0, i32* %10, align 4
  %11 = call i32 (i8*, ...) @__isoc99_scanf(i8* getelementptr inbounds ([3 x i8], [3 x i8]* @.str, i64 0, i64 0), i32* %6)
  store i32 0, i32* %8, align 4
  br label %12

12:                                               ; preds = %24, %2
  %13 = load i32, i32* %8, align 4
  %14 = load i32, i32* %6, align 4
  %15 = sub nsw i32 %14, 1
  %16 = icmp sle i32 %13, %15
  br i1 %16, label %17, label %27

17:                                               ; preds = %12
  %18 = load i32, i32* %8, align 4
  %19 = sext i32 %18 to i64
  %20 = getelementptr inbounds [100 x i32], [100 x i32]* %7, i64 0, i64 %19
  %21 = call i32 (i8*, ...) @__isoc99_scanf(i8* getelementptr inbounds ([3 x i8], [3 x i8]* @.str, i64 0, i64 0), i32* %20)
  %22 = load i32, i32* %10, align 4
  %23 = add nsw i32 %22, 1
  store i32 %23, i32* %10, align 4
  br label %24

24:                                               ; preds = %17
  %25 = load i32, i32* %8, align 4
  %26 = add nsw i32 %25, 1
  store i32 %26, i32* %8, align 4
  br label %12

27:                                               ; preds = %12
  %28 = load i32, i32* %10, align 4
  %29 = sub nsw i32 %28, 1
  store i32 %29, i32* %9, align 4
  br label %30

30:                                               ; preds = %39, %27
  %31 = load i32, i32* %9, align 4
  %32 = icmp sgt i32 %31, 0
  br i1 %32, label %33, label %42

33:                                               ; preds = %30
  %34 = load i32, i32* %9, align 4
  %35 = sext i32 %34 to i64
  %36 = getelementptr inbounds [100 x i32], [100 x i32]* %7, i64 0, i64 %35
  %37 = load i32, i32* %36, align 4
  %38 = call i32 (i8*, ...) @printf(i8* getelementptr inbounds ([4 x i8], [4 x i8]* @.str.1, i64 0, i64 0), i32 %37)
  br label %39

39:                                               ; preds = %33
  %40 = load i32, i32* %9, align 4
  %41 = add nsw i32 %40, -1
  store i32 %41, i32* %9, align 4
  br label %30

42:                                               ; preds = %30
  %43 = getelementptr inbounds [100 x i32], [100 x i32]* %7, i64 0, i64 0
  %44 = load i32, i32* %43, align 16
  %45 = call i32 (i8*, ...) @printf(i8* getelementptr inbounds ([3 x i8], [3 x i8]* @.str, i64 0, i64 0), i32 %44)
  ret i32 0
}

declare dso_local i32 @__isoc99_scanf(i8*, ...) #1

declare dso_local i32 @printf(i8*, ...) #1


!llvm.module.flags = !{!0}
!llvm.ident = !{!1}

!0 = !{i32 1, !"wchar_size", i32 4}
!1 = !{!"clang version 10.0.0-4ubuntu1 "}
